target datalayout = "e-m:e-p270:32:32-p271:32:32-p272:64:64-i64:64-i128:128-f80:128-n8:16:32:64-S128"
target triple = "x86_64-pc-linux-gnu"

@.str.123 = private unnamed_addr constant [83 x i8] c"import _testinternalcapi, json; print(json.dumps(_testinternalcapi.get_configs()))\00", align 1
@.str.222 = private unnamed_addr constant [23 x i8] c"Init allocation error\0A\00", align 1
@.str.223 = private unnamed_addr constant [17 x i8] c"configure_locale\00", align 1
@.str.224 = private unnamed_addr constant [9 x i8] c"dev_mode\00", align 1
@.str.225 = private unnamed_addr constant [10 x i8] c"hash_seed\00", align 1
@.str.226 = private unnamed_addr constant [15 x i8] c"perf_profiling\00", align 1
@.str.227 = private unnamed_addr constant [13 x i8] c"program_name\00", align 1
@.str.228 = private unnamed_addr constant [13 x i8] c"./_testembed\00", align 1
@.str.229 = private unnamed_addr constant [15 x i8] c"pycache_prefix\00", align 1
@.str.230 = private unnamed_addr constant [20 x i8] c"conf_pycache_prefix\00", align 1
@__const.test_initconfig_api.xoptions = private unnamed_addr constant [1 x ptr] [ptr @.str.231], align 8
@.str.232 = private unnamed_addr constant [9 x i8] c"xoptions\00", align 1
@.str.233 = private unnamed_addr constant [24 x i8] c"Python init failed: %s\0A\00", align 1

; Function Attrs: nounwind uwtable
define internal void @dump_config() #0 {
  %1 = call i32 @PyRun_SimpleStringFlags(ptr noundef @.str.123, ptr noundef null)
  ret void
}

; Function Attrs: nounwind uwtable
define internal i32 @test_initconfig_api() #0 {
  %1 = alloca i32, align 4
  %2 = alloca ptr, align 8
  %3 = alloca i32, align 4
  %4 = alloca [1 x ptr], align 8
  %5 = alloca ptr, align 8
  call void @llvm.lifetime.start.p0(i64 8, ptr %2) #11
  %6 = call ptr @PyInitConfig_Create()
  store ptr %6, ptr %2, align 8, !tbaa !75
  %7 = load ptr, ptr %2, align 8, !tbaa !75
  %8 = icmp eq ptr %7, null
  br i1 %8, label %9, label %11

9:                                                ; preds = %0
  %10 = call i32 (ptr, ...) @printf(ptr noundef @.str.222)
  store i32 1, ptr %1, align 4
  store i32 1, ptr %3, align 4
  br label %59

11:                                               ; preds = %0
  %12 = load ptr, ptr %2, align 8, !tbaa !75
  %13 = call i32 @PyInitConfig_SetInt(ptr noundef %12, ptr noundef @.str.223, i64 noundef 1)
  %14 = icmp slt i32 %13, 0
  br i1 %14, label %15, label %16

15:                                               ; preds = %11
  br label %54

16:                                               ; preds = %11
  %17 = load ptr, ptr %2, align 8, !tbaa !75
  %18 = call i32 @PyInitConfig_SetInt(ptr noundef %17, ptr noundef @.str.224, i64 noundef 1)
  %19 = icmp slt i32 %18, 0
  br i1 %19, label %20, label %21

20:                                               ; preds = %16
  br label %54

21:                                               ; preds = %16
  %22 = load ptr, ptr %2, align 8, !tbaa !75
  %23 = call i32 @PyInitConfig_SetInt(ptr noundef %22, ptr noundef @.str.225, i64 noundef 10)
  %24 = icmp slt i32 %23, 0
  br i1 %24, label %25, label %26

25:                                               ; preds = %21
  br label %54

26:                                               ; preds = %21
  %27 = load ptr, ptr %2, align 8, !tbaa !75
  %28 = call i32 @PyInitConfig_SetInt(ptr noundef %27, ptr noundef @.str.226, i64 noundef 2)
  %29 = icmp slt i32 %28, 0
  br i1 %29, label %30, label %31

30:                                               ; preds = %26
  br label %54

31:                                               ; preds = %26
  %32 = load ptr, ptr %2, align 8, !tbaa !75
  %33 = call i32 @PyInitConfig_SetStr(ptr noundef %32, ptr noundef @.str.227, ptr noundef @.str.228)
  %34 = icmp slt i32 %33, 0
  br i1 %34, label %35, label %36

35:                                               ; preds = %31
  br label %54

36:                                               ; preds = %31
  %37 = load ptr, ptr %2, align 8, !tbaa !75
  %38 = call i32 @PyInitConfig_SetStr(ptr noundef %37, ptr noundef @.str.229, ptr noundef @.str.230)
  %39 = icmp slt i32 %38, 0
  br i1 %39, label %40, label %41

40:                                               ; preds = %36
  br label %54

41:                                               ; preds = %36
  call void @llvm.memcpy.p0.p0.i64(ptr align 8 %4, ptr align 8 @__const.test_initconfig_api.xoptions, i64 8, i1 false)
  %42 = load ptr, ptr %2, align 8, !tbaa !75
  %43 = getelementptr inbounds [1 x ptr], ptr %4, i64 0, i64 0
  %44 = call i32 @PyInitConfig_SetStrList(ptr noundef %42, ptr noundef @.str.232, i64 noundef 1, ptr noundef %43)
  %45 = icmp slt i32 %44, 0
  br i1 %45, label %46, label %47

46:                                               ; preds = %41
  br label %54

47:                                               ; preds = %41
  %48 = load ptr, ptr %2, align 8, !tbaa !75
  %49 = call i32 @Py_InitializeFromInitConfig(ptr noundef %48)
  %50 = icmp slt i32 %49, 0
  br i1 %50, label %51, label %52

51:                                               ; preds = %47
  br label %54

52:                                               ; preds = %47
  %53 = load ptr, ptr %2, align 8, !tbaa !75
  call void @PyInitConfig_Free(ptr noundef %53)
  call void @PyInitConfig_Free(ptr noundef null)
  call void @dump_config()
  call void @Py_Finalize()
  store i32 0, ptr %1, align 4
  store i32 1, ptr %3, align 4
  br label %59

54:                                               ; preds = %51, %46, %40, %35, %30, %25, %20, %15
  call void @llvm.lifetime.start.p0(i64 8, ptr %5) #11
  %55 = load ptr, ptr %2, align 8, !tbaa !75
  %56 = call i32 @PyInitConfig_GetError(ptr noundef %55, ptr noundef %5)
  %57 = load ptr, ptr %5, align 8, !tbaa !16
  %58 = call i32 (ptr, ...) @printf(ptr noundef @.str.233, ptr noundef %57)
  call void @exit(i32 noundef 1) #13
  unreachable

59:                                               ; preds = %52, %9
  call void @llvm.lifetime.end.p0(i64 8, ptr %2) #11
  %60 = load i32, ptr %1, align 4
  ret i32 %60
}