; Function Attrs: nounwind uwtable
define internal range(i32 0, 2) i32 @test_initconfig_api() #0 {
  %1 = alloca [1 x ptr], align 8
  %2 = alloca ptr, align 8
  %3 = tail call ptr @PyInitConfig_Create() #20
  %4 = icmp eq ptr %3, null
  br i1 %4, label %5, label %6

5:                                                ; preds = %0
  %puts = tail call i32 @puts(ptr nonnull dereferenceable(1) @str.24)
  br label %36

6:                                                ; preds = %0
  %7 = tail call i32 @PyInitConfig_SetInt(ptr noundef nonnull %3, ptr noundef nonnull @.str.223, i64 noundef 1) #20
  %8 = icmp slt i32 %7, 0
  br i1 %8, label %32, label %9

9:                                                ; preds = %6
  %10 = tail call i32 @PyInitConfig_SetInt(ptr noundef nonnull %3, ptr noundef nonnull @.str.224, i64 noundef 1) #20
  %11 = icmp slt i32 %10, 0
  br i1 %11, label %32, label %12

12:                                               ; preds = %9
  %13 = tail call i32 @PyInitConfig_SetInt(ptr noundef nonnull %3, ptr noundef nonnull @.str.225, i64 noundef 10) #20
  %14 = icmp slt i32 %13, 0
  br i1 %14, label %32, label %15

15:                                               ; preds = %12
  %16 = tail call i32 @PyInitConfig_SetInt(ptr noundef nonnull %3, ptr noundef nonnull @.str.226, i64 noundef 2) #20
  %17 = icmp slt i32 %16, 0
  br i1 %17, label %32, label %18

18:                                               ; preds = %15
  %19 = tail call i32 @PyInitConfig_SetStr(ptr noundef nonnull %3, ptr noundef nonnull @.str.227, ptr noundef nonnull @.str.228) #20
  %20 = icmp slt i32 %19, 0
  br i1 %20, label %32, label %21

21:                                               ; preds = %18
  %22 = tail call i32 @PyInitConfig_SetStr(ptr noundef nonnull %3, ptr noundef nonnull @.str.229, ptr noundef nonnull @.str.230) #20
  %23 = icmp slt i32 %22, 0
  br i1 %23, label %32, label %24

24:                                               ; preds = %21
  store i64 ptrtoint (ptr @.str.231 to i64), ptr %1, align 8
  %25 = call i32 @PyInitConfig_SetStrList(ptr noundef nonnull %3, ptr noundef nonnull @.str.232, i64 noundef 1, ptr noundef nonnull %1) #20
  %26 = icmp slt i32 %25, 0
  br i1 %26, label %32, label %27

27:                                               ; preds = %24
  %28 = call i32 @Py_InitializeFromInitConfig(ptr noundef nonnull %3) #20
  %29 = icmp slt i32 %28, 0
  br i1 %29, label %32, label %30

30:                                               ; preds = %27
  call void @PyInitConfig_Free(ptr noundef nonnull %3) #20
  call void @PyInitConfig_Free(ptr noundef null) #20
  %31 = call i32 @PyRun_SimpleStringFlags(ptr noundef nonnull @.str.123, ptr noundef null) #20
  call void @Py_Finalize() #20
  br label %36

32:                                               ; preds = %27, %24, %21, %18, %15, %12, %9, %6
  call void @llvm.lifetime.start.p0(i64 8, ptr nonnull %2) #20
  %33 = call i32 @PyInitConfig_GetError(ptr noundef nonnull %3, ptr noundef nonnull %2) #20
  %34 = load ptr, ptr %2, align 8, !tbaa !11
  %35 = call i32 (ptr, ...) @printf(ptr noundef nonnull dereferenceable(1) @.str.233, ptr noundef %34)
  call void @exit(i32 noundef 1) #22
  unreachable

36:                                               ; preds = %30, %5
  %.0 = phi i32 [ 1, %5 ], [ 0, %30 ]
  ret i32 %.0
}